(lp0
I1239
aI1238
aI1237
aI1235
aI1234
aI1233
aI1232
aI1231
aI1229
aI1226
aI1225
aI1224
aI1223
aI1221
aI1220
aI1219
aI1212
aI1211
aI1210
aI1209
aI1208
aI1207
aI1206
aI1205
aI1204
aI1204
aI1203
aI1202
aI1201
aI1200
aI1199
aI1193
aI1192
aI1191
aI1190
aI1189
aI1188
aI1187
aI1186
aI1185
aI1181
aI1180
aI1179
aI1178
aI1177
aI1176
aI1175
aI1174
aI1173
aI1172
aI1171
aI1170
aI1169
aI1168
aI1167
aI1166
aI1165
aI1159
aI1158
aI1157
aI1153
aI1152
aI1151
aI1150
aI1149
aI1144
aI1143
aI1142
aI1141
aI1140
aI1139
aI1138
aI1137
aI1136
aI1134
aI1133
aI1132
aI1130
aI1129
aI1128
aI1128
aI1127
aI1126
aI1125
aI1124
aI1123
aI1122
aI1121
aI1120
aI1119
aI1118
aI1117
aI1116
aI1115
aI1114
aI1113
aI1112
aI1111
aI1110
aI1109
aI1108
aI1107
aI1106
aI1105
aI1105
aI1104
aI1103
aI1100
aI1099
aI1096
aI1095
aI1094
aI1093
aI1092
aI1091
aI1090
aI1089
aI1088
aI1087
aI1086
aI1085
aI1084
aI1083
aI1082
aI1081
aI1080
aI1080
aI1079
aI1078
aI1078
aI1077
aI1076
aI1075
aI1074
aI1073
aI1072
aI1071
aI1070
aI1066
aI1065
aI1058
aI1056
aI1055
aI1054
aI1054
aI1052
aI1051
aI1050
aI1049
aI1048
aI1047
aI1046
aI1045
aI1044
aI1041
aI1040
aI1039
aI1038
aI1037
aI1036
aI1035
aI1034
aI1033
aI1032
aI1031
aI1030
aI1029
aI1028
aI1023
aI1022
aI1021
aI1020
aI1019
aI1018
aI1017
aI1016
aI1015
aI1014
aI1013
aI1012
aI1008
aI1007
aI1007
aI1006
aI995
aI994
aI993
aI992
aI991
aI990
aI988
aI987
aI986
aI985
aI984
aI983
aI982
aI981
aI980
aI979
aI973
aI972
aI970
aI969
aI968
aI966
aI963
aI962
aI960
aI959
aI957
aI956
aI950
aI949
aI944
aI942
aI939
aI938
aI937
aI936
aI935
aI934
aI933
aI932
aI932
aI931
aI930
aI928
aI928
aI927
aI926
aI925
aI924
aI923
aI920
aI920
aI919
aI918
aI917
aI916
aI915
aI914
aI914
aI903
aI903
aI902
aI901
aI900
aI899
aI898
aI897
aI896
aI895
aI894
aI890
aI889
aI889
aI888
aI887
aI886
aI885
aI884
aI883
aI880
aI879
aI879
aI878
aI877
aI876
aI872
aI871
aI870
aI869
aI868
aI867
aI866
aI859
aI858
aI857
aI856
aI854
aI853
aI848
aI847
aI846
aI844
aI844
aI843
aI842
aI841
aI840
aI839
aI838
aI837
aI837
aI836
aI835
aI835
aI834
aI833
aI832
aI831
aI830
aI828
aI827
aI826
aI825
aI824
aI823
aI822
aI821
aI820
aI818
aI816
aI812
aI811
aI810
aI809
aI809
aI808
aI807
aI803
aI798
aI795
aI794
aI793
aI782
aI780
aI779
aI779
aI778
aI777
aI777
aI777
aI777
aI775
aI774
aI773
aI772
aI772
aI771
aI770
aI769
aI768
aI767
aI766
aI765
aI757
aI756
aI755
aI754
aI753
aI751
aI750
aI749
aI748
aI747
aI747
aI746
aI745
aI744
aI743
aI742
aI738
aI737
aI736
aI735
aI734
aI733
aI732
aI731
aI730
aI730
aI729
aI727
aI727
aI725
aI724
aI723
aI720
aI719
aI718
aI717
aI716
aI713
aI712
aI712
aI711
aI710
aI710
aI709
aI708
aI707
aI707
aI706
aI705
aI704
aI700
aI699
aI698
aI698
aI697
aI696
aI696
aI696
aI695
aI694
aI694
aI694
aI693
aI692
aI691
aI690
aI686
aI685
aI684
aI683
aI682
aI681
aI679
aI678
aI677
aI675
aI674
aI673
aI672
aI671
aI670
aI654
aI653
aI653
aI646
aI645
aI644
aI644
aI644
aI644
aI640
aI639
aI639
aI639
aI638
aI636
aI636
aI635
aI628
aI627
aI625
aI622
aI622
aI614
aI614
aI612
aI611
aI610
aI609
aI608
aI608
aI607
aI606
aI606
aI584
aI584
aI584
aI583
aI582
aI578
aI578
aI578
aI573
aI561
aI560
aI560
aI559
aI559
aI559
aI558
aI558
aI558
aI558
aI557
aI556
aI551
aI550
aI548
aI547
aI546
aI545
aI545
aI545
aI544
aI543
aI542
aI541
aI541
aI540
aI540
aI539
aI538
aI538
aI535
aI535
aI534
aI533
aI533
aI532
aI531
aI528
aI527
aI526
aI526
aI525
aI524
aI523
aI522
aI519
aI518
aI518
aI518
aI517
aI516
aI512
aI512
aI512
aI511
aI510
aI509
aI509
aI509
aI508
aI507
aI506
aI505
aI504
aI502
aI502
aI501
aI500
aI499
aI498
aI497
aI494
aI493
aI491
aI490
aI489
aI487
aI473
aI465
aI464
aI463
aI463
aI463
aI463
aI462
aI462
aI459
aI454
aI452
aI450
aI450
aI450
aI439
aI438
aI438
aI438
aI438
aI438
aI437
aI437
aI436
aI435
aI434
aI429
aI428
aI426
aI426
aI426
aI425
aI425
aI425
aI425
aI424
aI423
aI422
aI421
aI416
aI416
aI415
aI414
aI414
aI414
aI413
aI413
aI413
aI413
aI413
aI412
aI410
aI409
aI409
aI409
aI407
aI407
aI405
aI405
aI402
aI401
aI401
aI400
aI399
aI398
aI397
aI394
aI393
aI392
aI391
aI390
aI389
aI388
aI388
aI388
aI388
aI386
aI386
aI386
aI385
aI385
aI384
aI383
aI381
aI381
aI381
aI380
aI379
aI378
aI378
aI377
aI376
aI373
aI373
aI372
aI372
aI367
aI366
aI365
aI364
aI363
aI362
aI361
aI361
aI360
aI357
aI355
aI354
aI354
aI354
aI354
aI353
aI353
aI352
aI352
aI351
aI350
aI350
aI349
aI349
aI348
aI347
aI347
aI346
aI345
aI344
aI342
aI341
aI341
aI339
aI331
aI330
aI329
aI329
aI328
aI327
aI325
aI325
aI324
aI324
aI324
aI324
aI311
aI310
aI309
aI309
aI309
aI309
aI308
aI305
aI304
aI304
aI304
aI304
aI304
aI303
aI303
aI302
aI301
aI299
aI299
aI299
aI299
aI299
aI289
aI288
aI285
aI284
aI283
aI282
aI281
aI281
aI281
aI281
aI281
aI281
aI281
aI280
aI279
aI278
aI277
aI277
aI276
aI276
aI276
aI276
aI276
aI275
aI270
aI270
aI270
aI269
aI269
aI269
aI269
aI269
aI268
aI267
aI266
aI263
aI263
aI262
aI261
aI261
aI260
aI259
aI257
aI256
aI256
aI255
aI254
aI241
aI240
aI240
aI240
aI240
aI239
aI238
aI238
aI237
aI236
aI235
aI234
aI234
aI233
aI233
aI232
aI231
aI231
aI230
aI230
aI229
aI229
aI228
aI227
aI227
aI227
aI227
aI226
aI226
aI225
aI224
aI177
aI177
aI177
aI175
aI175
aI175
aI175
aI174
aI173
aI173
aI173
aI173
aI173
aI172
aI171
aI171
aI169
aI169
aI169
aI168
aI168
aI168
aI168
aI168
aI167
aI167
aI166
aI164
aI164
aI164
aI164
aI162
aI162
aI162
aI162
aI159
aI159
aI159
aI159
aI159
aI159
aI159
aI158
aI157
aI157
aI157
aI152
aI152
aI150
aI150
aI149
aI148
aI148
aI148
aI148
aI147
aI147
aI145
aI144
aI144
aI144
aI144
aI144
aI143
aI143
aI143
aI143
aI143
aI143
aI143
aI143
aI143
aI143
aI142
aI142
aI142
aI142
aI142
aI142
aI142
aI141
aI140
aI140
aI140
aI140
aI140
aI139
aI139
aI139
aI138
aI138
aI138
aI138
aI138
aI138
aI68
aI68
aI68
aI68
aI68
aI68
aI68
aI68
aI68
aI68
aI68
aI68
aI68
aI68
aI68
aI68
aI68
aI68
aI68
aI67
aI67
aI56
aI56
aI56
aI53
aI53
aI53
aI53
aI52
aI52
aI52
aI52
aI51
aI51
aI51
aI51
aI51
aI51
aI51
aI48
aI48
aI47
aI47
aI47
aI47
aI47
aI45
aI45
aI44
aI44
aI44
aI44
aI44
aI44
aI44
aI44
aI44
aI44
aI44
aI44
aI44
aI41
aI41
aI41
aI41
aI41
aI41
aI41
aI41
aI41
aI41
aI41
aI40
aI40
aI40
aI40
aI40
aI40
aI40
aI40
aI40
aI40
aI40
aI40
aI40
aI39
aI39
aI38
aI38
aI24
aI24
aI24
aI22
aI21
aI21
aI21
aI21
aI21
aI21
aI21
aI21
aI21
aI21
aI21
aI21
aI21
aI21
aI21
aI21
aI21
aI21
aI21
aI21
aI21
aI21
aI21
aI21
aI21
aI21
aI21
aI21
aI21
aI21
aI21
aI21
aI21
aI21
aI21
aI21
aI21
aI21
aI21
aI21
aI21
aI21
aI21
aI21
aI21
aI21
aI21
aI21
aI20
aI20
aI18
aI18
aI18
aI18
aI12
aI11
aI11
aI11
aI11
aI11
aI11
aI11
aI11
aI11
aI11
aI11
aI11
aI11
aI11
aI11
aI11
aI11
aI11
aI11
aI11
aI11
aI11
aI11
aI11
aI11
aI11
aI11
aI11
aI11
aI11
aI11
aI11
aI11
aI11
aI11
aI9
aI9
aI9
aI9
aI9
aI9
aI9
aI9
aI9
aI9
aI9
aI8
aI8
aI8
aI8
aI8
aI8
aI8
aI8
aI8
aI8
aI8
aI8
aI8
aI8
aI8
aI8
aI8
aI8
aI8
aI8
aI8
aI8
aI8
aI8
aI8
aI7
aI7
aI7
aI7
aI7
aI7
aI7
aI7
aI7
aI7
aI7
aI7
aI7
aI7
aI7
aI7
aI7
aI7
aI7
aI7
aI7
aI7
aI7
aI7
aI7
aI7
aI7
aI7
aI7
aI5
aI5
aI5
aI5
aI5
aI5
aI5
aI5
aI5
aI5
aI5
aI5
aI5
aI5
aI5
aI5
aI5
aI5
aI5
aI3
aI3
aI3
aI3
aI3
aI3
aI3
aI3
aI3
aI3
aI3
aI3
aI3
aI3
aI3
aI2
aI2
aI2
aI2
aI2
aI2
aI2
aI2
aI2
aI2
aI2
aI2
aI2
aI2
aI2
aI2
aI2
aI2
aI2
aI2
aI2
aI2
aI2
aI2
aI2
aI2
aI2
aI2
aI2
aI2
aI2
aI2
aI2
aI2
aI2
aI2
aI2
aI2
aI2
aI2
aI2
aI2
aI2
aI2
aI2
aI2
aI2
aI2
aI2
aI2
aI1
aI1
aI1
aI1
aI1
aI1
aI1
aI1
aI1
aI1
aI1
aI1
aI1
aI1
aI1
aI1
aI1
aI1
aI1
aI1
aI1
aI1
aI1
aI0
a.